Certificate:
    Data:
        Version: 3 (0x2)
        Serial Number: 1 (0x1)
    Signature Algorithm: sha1WithRSAEncryption
        Issuer: C=US, ST=Unset, L=Unset, O=Unset, CN=www.example.com
        Validity
            Not Before: Dec 23 06:50:07 2013 GMT
            Not After : Dec 21 06:50:07 2023 GMT
        Subject: C=US, ST=Unset, O=Unset, CN=www.example.com
        Subject Public Key Info:
            Public Key Algorithm: rsaEncryption
                Public-Key: (2048 bit)
                Modulus:
                    00:b1:dc:53:e0:66:18:92:9f:bd:ce:51:f6:68:e0:
                    76:de:a7:8e:c9:4a:49:67:45:ee:fc:b4:2e:5d:df:
                    10:2c:b6:6d:4e:4b:d5:72:b6:e3:02:73:93:49:a4:
                    ad:e2:67:81:14:4b:ec:67:23:e0:6e:e6:9c:41:54:
                    db:a5:35:8d:e1:4a:b0:4e:4f:e8:66:fb:ff:c1:d7:
                    fb:80:c2:1b:d6:00:12:81:34:9a:35:e0:ab:b9:77:
                    12:53:6a:c4:61:83:cf:26:5e:ea:6a:84:7e:2f:36:
                    35:10:4b:7d:93:ac:00:2c:2b:32:fd:bd:01:7d:6a:
                    17:49:1d:51:f2:e0:b9:fc:63:98:45:78:bb:18:44:
                    63:a4:87:02:6c:8d:15:ab:e0:47:ad:83:ee:68:0a:
                    cd:b9:d5:a0:27:a1:77:b0:b6:a3:8e:72:79:f2:d8:
                    f9:9e:4b:6b:97:1b:e7:b6:92:52:f6:67:7e:f8:41:
                    f2:d8:ee:13:3f:b6:9b:85:51:45:7b:c8:5b:94:d8:
                    cc:9a:2f:ab:e5:5d:9e:b5:81:54:43:8b:4c:f9:b1:
                    1f:d9:78:cb:7c:8f:34:a0:13:76:85:45:ce:35:50:
                    de:93:00:f8:c0:3b:80:28:ed:31:77:1e:a2:dd:f8:
                    77:50:bc:11:05:48:5a:98:c5:92:0e:ed:ce:88:57:
                    be:1b
                Exponent: 65537 (0x10001)
        X509v3 extensions:
            X509v3 Basic Constraints: 
                CA:FALSE
            X509v3 Subject Key Identifier: 
                5A:A0:F2:FE:B5:2F:FF:D2:76:1C:9D:FE:B1:43:D9:C3:40:26:05:F2
            X509v3 Authority Key Identifier: 
                keyid:09:E2:8F:21:C7:FD:54:5E:80:3A:E4:56:D2:B9:3A:CF:88:9F:42:05

    Signature Algorithm: sha1WithRSAEncryption
         97:0c:83:7c:5a:2a:ba:f8:30:ef:67:0f:94:08:64:50:30:06:
         40:f0:5c:1c:00:1c:50:e0:e5:d9:16:c6:c1:6b:a2:c3:83:1b:
         45:8e:8a:9e:e1:08:52:a7:40:12:d4:34:01:04:9f:59:5d:a4:
         e3:09:35:fd:3b:ea:e9:c0:47:4f:a5:e0:9b:5d:7b:73:59:b3:
         09:30:a5:4d:73:25:ab:b4:66:fe:28:95:9e:f3:d1:01:4e:0a:
         64:ce:7c:d4:9f:72:db:e7:0e:55:75:b6:af:06:de:88:6e:a5:
         51:b3:20:c3:4a:56:ca:01:f5:ac:21:02:84:b7:42:9d:86:30:
         18:38:55:e8:86:82:e0:41:93:af:3f:44:ec:33:2b:85:27:85:
         27:0f:13:10:ac:62:db:0e:8b:37:1e:31:b8:da:ef:55:17:a2:
         1a:6f:a4:dd:cf:41:b2:da:87:5d:66:cd:55:54:f5:41:ac:ff:
         46:b2:4b:f5:0e:96:c5:15:83:9b:4e:f5:eb:4e:03:8a:a5:45:
         03:ea:00:7b:b8:fb:3c:58:bd:e7:ba:76:2d:cb:8e:f6:24:8c:
         36:34:2f:91:6b:bf:58:35:a7:39:34:c4:8d:ce:ef:2e:3b:ee:
         12:8b:05:2a:99:2b:1c:81:46:c4:64:a1:7c:9b:79:db:75:5a:
         25:5e:1a:f3
-----BEGIN CERTIFICATE-----
MIIDZjCCAk6gAwIBAgIBATANBgkqhkiG9w0BAQUFADBXMQswCQYDVQQGEwJVUzEO
MAwGA1UECAwFVW5zZXQxDjAMBgNVBAcMBVVuc2V0MQ4wDAYDVQQKDAVVbnNldDEY
MBYGA1UEAwwPd3d3LmV4YW1wbGUuY29tMB4XDTEzMTIyMzA2NTAwN1oXDTIzMTIy
MTA2NTAwN1owRzELMAkGA1UEBhMCVVMxDjAMBgNVBAgMBVVuc2V0MQ4wDAYDVQQK
DAVVbnNldDEYMBYGA1UEAwwPd3d3LmV4YW1wbGUuY29tMIIBIjANBgkqhkiG9w0B
AQEFAAOCAQ8AMIIBCgKCAQEAsdxT4GYYkp+9zlH2aOB23qeOyUpJZ0Xu/LQuXd8Q
LLZtTkvVcrbjAnOTSaSt4meBFEvsZyPgbuacQVTbpTWN4UqwTk/oZvv/wdf7gMIb
1gASgTSaNeCruXcSU2rEYYPPJl7qaoR+LzY1EEt9k6wALCsy/b0BfWoXSR1R8uC5
/GOYRXi7GERjpIcCbI0Vq+BHrYPuaArNudWgJ6F3sLajjnJ58tj5nktrlxvntpJS
9md++EHy2O4TP7abhVFFe8hblNjMmi+r5V2etYFUQ4tM+bEf2XjLfI80oBN2hUXO
NVDekwD4wDuAKO0xdx6i3fh3ULwRBUhamMWSDu3OiFe+GwIDAQABo00wSzAJBgNV
HRMEAjAAMB0GA1UdDgQWBBRaoPL+tS//0nYcnf6xQ9nDQCYF8jAfBgNVHSMEGDAW
gBQJ4o8hx/1UXoA65FbSuTrPiJ9CBTANBgkqhkiG9w0BAQUFAAOCAQEAlwyDfFoq
uvgw72cPlAhkUDAGQPBcHAAcUODl2RbGwWuiw4MbRY6KnuEIUqdAEtQ0AQSfWV2k
4wk1/Tvq6cBHT6Xgm117c1mzCTClTXMlq7Rm/iiVnvPRAU4KZM581J9y2+cOVXW2
rwbeiG6lUbMgw0pWygH1rCEChLdCnYYwGDhV6IaC4EGTrz9E7DMrhSeFJw8TEKxi
2w6LNx4xuNrvVReiGm+k3c9BstqHXWbNVVT1Qaz/RrJL9Q6WxRWDm071604DiqVF
A+oAe7j7PFi957p2LcuO9iSMNjQvkWu/WDWnOTTEjc7vLjvuEosFKpkrHIFGxGSh
fJt523VaJV4a8w==
-----END CERTIFICATE-----
